target datalayout = "e-m:e-p270:32:32-p271:32:32-p272:64:64-i64:64-i128:128-f80:128-n8:16:32:64-S128"
target triple = "x86_64-pc-linux-gnu"

%"class.google::protobuf::internal::ParseContext" = type { %"class.google::protobuf::internal::EpsCopyInputStream", i32, i32, %"struct.google::protobuf::internal::ParseContext::Data" }
%"class.google::protobuf::internal::EpsCopyInputStream" = type { ptr, ptr, ptr, i32, i32, ptr, [32 x i8], i64, i32, i32 }
%"struct.google::protobuf::internal::ParseContext::Data" = type { ptr, ptr }

@_ZN6google8protobuf2io16CodedInputStream24default_recursion_limit_E = external global i32, align 4

; Function Attrs: mustprogress uwtable
define linkonce_odr noundef zeroext i1 @_ZNK6google8protobuf11MessageLite23IsInitializedWithErrorsEv(ptr noundef nonnull align 8 dereferenceable(16) %0) #4 comdat align 2 {
  %2 = alloca i1, align 1
  %3 = alloca ptr, align 8
  store ptr %0, ptr %3, align 8
  %4 = load ptr, ptr %3, align 8
  %5 = load ptr, ptr %4, align 8
  %6 = getelementptr inbounds ptr, ptr %5, i64 6
  %7 = load ptr, ptr %6, align 8
  %8 = call noundef zeroext i1 %7(ptr noundef nonnull align 8 dereferenceable(16) %4)
  br i1 %8, label %9, label %10

9:                                                ; preds = %1
  store i1 true, ptr %2, align 1
  br label %11

10:                                               ; preds = %1
  call void @_ZNK6google8protobuf11MessageLite29LogInitializationErrorMessageEv(ptr noundef nonnull align 8 dereferenceable(16) %4)
  store i1 false, ptr %2, align 1
  br label %11

11:                                               ; preds = %10, %9
  %12 = load i1, ptr %2, align 1
  ret i1 %12
}

; Function Attrs: mustprogress nounwind uwtable
define linkonce_odr void @_ZN6google8protobuf8internal12ParseContext4DataC2Ev(ptr noundef nonnull align 8 dereferenceable(16) %0) unnamed_addr #5 comdat align 2 {
  %2 = alloca ptr, align 8
  store ptr %0, ptr %2, align 8
  %3 = load ptr, ptr %2, align 8
  %4 = getelementptr inbounds %"struct.google::protobuf::internal::ParseContext::Data", ptr %3, i32 0, i32 0
  store ptr null, ptr %4, align 8
  %5 = getelementptr inbounds %"struct.google::protobuf::internal::ParseContext::Data", ptr %3, i32 0, i32 1
  store ptr null, ptr %5, align 8
  ret void
}

; Function Attrs: mustprogress nounwind uwtable
define linkonce_odr void @_ZN6google8protobuf8internal18EpsCopyInputStreamC2Eb(ptr noundef nonnull align 8 dereferenceable(88) %0, i1 noundef zeroext %1) unnamed_addr #5 comdat align 2 {
  %3 = alloca ptr, align 8
  %4 = alloca i8, align 1
  store ptr %0, ptr %3, align 8
  %5 = zext i1 %1 to i8
  store i8 %5, ptr %4, align 1
  %6 = load ptr, ptr %3, align 8
  %7 = getelementptr inbounds %"class.google::protobuf::internal::EpsCopyInputStream", ptr %6, i32 0, i32 5
  store ptr null, ptr %7, align 8
  %8 = getelementptr inbounds %"class.google::protobuf::internal::EpsCopyInputStream", ptr %6, i32 0, i32 6
  %9 = getelementptr inbounds [32 x i8], ptr %8, i64 0, i64 0
  %10 = getelementptr inbounds i8, ptr %9, i64 32
  br label %11

11:                                               ; preds = %11, %2
  %12 = phi ptr [ %9, %2 ], [ %13, %11 ]
  store i8 0, ptr %12, align 1
  %13 = getelementptr inbounds i8, ptr %12, i64 1
  %14 = icmp eq ptr %13, %10
  br i1 %14, label %15, label %11

15:                                               ; preds = %11
  %16 = getelementptr inbounds %"class.google::protobuf::internal::EpsCopyInputStream", ptr %6, i32 0, i32 7
  %17 = load i8, ptr %4, align 1
  %18 = trunc i8 %17 to i1
  %19 = select i1 %18, i32 1, i32 0
  %20 = zext i32 %19 to i64
  store i64 %20, ptr %16, align 8
  %21 = getelementptr inbounds %"class.google::protobuf::internal::EpsCopyInputStream", ptr %6, i32 0, i32 8
  store i32 0, ptr %21, align 8
  %22 = getelementptr inbounds %"class.google::protobuf::internal::EpsCopyInputStream", ptr %6, i32 0, i32 9
  store i32 2147483647, ptr %22, align 4
  ret void
}

; Function Attrs: mustprogress uwtable
define internal noundef zeroext i1 @_ZN6google8protobuf12_GLOBAL__N_118CheckFieldPresenceERKNS0_8internal12ParseContextERKNS0_11MessageLiteENS6_10ParseFlagsE(ptr noundef nonnull align 8 dereferenceable(112) %0, ptr noundef nonnull align 8 dereferenceable(16) %1, i32 noundef %2) #4 {
  %4 = alloca i1, align 1
  %5 = alloca ptr, align 8
  %6 = alloca ptr, align 8
  %7 = alloca i32, align 4
  store ptr %0, ptr %5, align 8
  store ptr %1, ptr %6, align 8
  store i32 %2, ptr %7, align 4
  %8 = load i32, ptr %7, align 4
  %9 = and i32 %8, 2
  %10 = icmp ne i32 %9, 0
  br i1 %10, label %11, label %12

11:                                               ; preds = %3
  store i1 true, ptr %4, align 1
  br label %15

12:                                               ; preds = %3
  %13 = load ptr, ptr %6, align 8
  %14 = call noundef zeroext i1 @_ZNK6google8protobuf11MessageLite23IsInitializedWithErrorsEv(ptr noundef nonnull align 8 dereferenceable(16) %13)
  store i1 %14, ptr %4, align 1
  br label %15

15:                                               ; preds = %12, %11
  %16 = load i1, ptr %4, align 1
  ret i1 %16
}

; Function Attrs: mustprogress nounwind uwtable
define linkonce_odr noundef zeroext i1 @_ZNK6google8protobuf8internal18EpsCopyInputStream18EndedAtEndOfStreamEv(ptr noundef nonnull align 8 dereferenceable(88) %0) #5 comdat align 2 {
  %2 = alloca ptr, align 8
  store ptr %0, ptr %2, align 8
  %3 = load ptr, ptr %2, align 8
  %4 = getelementptr inbounds %"class.google::protobuf::internal::EpsCopyInputStream", ptr %3, i32 0, i32 8
  %5 = load i32, ptr %4, align 8
  %6 = icmp eq i32 %5, 1
  ret i1 %6
}

; Function Attrs: mustprogress uwtable
define linkonce_odr void @_ZN6google8protobuf8internal12ParseContextC2IJRPNS0_2io19ZeroCopyInputStreamEEEEibPPKcDpOT_(ptr noundef nonnull align 8 dereferenceable(112) %0, i32 noundef %1, i1 noundef zeroext %2, ptr noundef %3, ptr noundef nonnull align 8 dereferenceable(8) %4) unnamed_addr #4 comdat align 2 {
  %6 = alloca ptr, align 8
  %7 = alloca i32, align 4
  %8 = alloca i8, align 1
  %9 = alloca ptr, align 8
  %10 = alloca ptr, align 8
  store ptr %0, ptr %6, align 8
  store i32 %1, ptr %7, align 4
  %11 = zext i1 %2 to i8
  store i8 %11, ptr %8, align 1
  store ptr %3, ptr %9, align 8
  store ptr %4, ptr %10, align 8
  %12 = load ptr, ptr %6, align 8
  %13 = load i8, ptr %8, align 1
  %14 = trunc i8 %13 to i1
  call void @_ZN6google8protobuf8internal18EpsCopyInputStreamC2Eb(ptr noundef nonnull align 8 dereferenceable(88) %12, i1 noundef zeroext %14)
  %15 = getelementptr inbounds %"class.google::protobuf::internal::ParseContext", ptr %12, i32 0, i32 1
  %16 = load i32, ptr %7, align 4
  store i32 %16, ptr %15, align 8
  %17 = getelementptr inbounds %"class.google::protobuf::internal::ParseContext", ptr %12, i32 0, i32 2
  store i32 -2147483648, ptr %17, align 4
  %18 = getelementptr inbounds %"class.google::protobuf::internal::ParseContext", ptr %12, i32 0, i32 3
  call void @_ZN6google8protobuf8internal12ParseContext4DataC2Ev(ptr noundef nonnull align 8 dereferenceable(16) %18) #3
  %19 = load ptr, ptr %10, align 8
  %20 = load ptr, ptr %19, align 8
  %21 = call noundef ptr @_ZN6google8protobuf8internal18EpsCopyInputStream8InitFromEPNS0_2io19ZeroCopyInputStreamE(ptr noundef nonnull align 8 dereferenceable(88) %12, ptr noundef %20)
  %22 = load ptr, ptr %9, align 8
  store ptr %21, ptr %22, align 8
  ret void
}

; Function Attrs: mustprogress nounwind uwtable
define linkonce_odr noundef i32 @_ZN6google8protobuf2io16CodedInputStream24GetDefaultRecursionLimitEv() #5 comdat align 2 {
  %1 = load i32, ptr @_ZN6google8protobuf2io16CodedInputStream24default_recursion_limit_E, align 4
  ret i32 %1
}

; Function Attrs: mustprogress uwtable
define weak_odr noundef zeroext i1 @_ZN6google8protobuf8internal13MergeFromImplILb0EEEbPNS0_2io19ZeroCopyInputStreamEPNS0_11MessageLiteENS6_10ParseFlagsE(ptr noundef %0, ptr noundef %1, i32 noundef %2) #4 comdat {
  %4 = alloca i1, align 1
  %5 = alloca ptr, align 8
  %6 = alloca ptr, align 8
  %7 = alloca i32, align 4
  %8 = alloca ptr, align 8
  %9 = alloca %"class.google::protobuf::internal::ParseContext", align 8
  store ptr %0, ptr %5, align 8
  store ptr %1, ptr %6, align 8
  store i32 %2, ptr %7, align 4
  %10 = call noundef i32 @_ZN6google8protobuf2io16CodedInputStream24GetDefaultRecursionLimitEv()
  call void @_ZN6google8protobuf8internal12ParseContextC2IJRPNS0_2io19ZeroCopyInputStreamEEEEibPPKcDpOT_(ptr noundef nonnull align 8 dereferenceable(112) %9, i32 noundef %10, i1 noundef zeroext false, ptr noundef %8, ptr noundef nonnull align 8 dereferenceable(8) %5)
  %11 = load ptr, ptr %6, align 8
  %12 = load ptr, ptr %8, align 8
  %13 = load ptr, ptr %11, align 8
  %14 = getelementptr inbounds ptr, ptr %13, i64 11
  %15 = load ptr, ptr %14, align 8
  %16 = call noundef ptr %15(ptr noundef nonnull align 8 dereferenceable(16) %11, ptr noundef %12, ptr noundef %9)
  store ptr %16, ptr %8, align 8
  %17 = load ptr, ptr %8, align 8
  %18 = icmp ne ptr %17, null
  br i1 %18, label %19, label %21

19:                                               ; preds = %3
  %20 = call noundef zeroext i1 @_ZNK6google8protobuf8internal18EpsCopyInputStream18EndedAtEndOfStreamEv(ptr noundef nonnull align 8 dereferenceable(88) %9)
  br label %21

21:                                               ; preds = %19, %3
  %22 = phi i1 [ false, %3 ], [ %20, %19 ]
  %23 = xor i1 %22, true
  %24 = xor i1 %23, true
  br i1 %24, label %25, label %29

25:                                               ; preds = %21
  %26 = load ptr, ptr %6, align 8
  %27 = load i32, ptr %7, align 4
  %28 = call noundef zeroext i1 @_ZN6google8protobuf12_GLOBAL__N_118CheckFieldPresenceERKNS0_8internal12ParseContextERKNS0_11MessageLiteENS6_10ParseFlagsE(ptr noundef nonnull align 8 dereferenceable(112) %9, ptr noundef nonnull align 8 dereferenceable(16) %26, i32 noundef %27)
  store i1 %28, ptr %4, align 1
  br label %30

29:                                               ; preds = %21
  store i1 false, ptr %4, align 1
  br label %30

30:                                               ; preds = %29, %25
  %31 = load i1, ptr %4, align 1
  ret i1 %31
}

; Function Attrs: mustprogress uwtable
define linkonce_odr noundef zeroext i1 @_ZN6google8protobuf11MessageLite9ParseFromILNS1_10ParseFlagsE1EPNS0_2io19ZeroCopyInputStreamEEEbRKT0_(ptr noundef nonnull align 8 dereferenceable(16) %0, ptr noundef nonnull align 8 dereferenceable(8) %1) #4 comdat align 2 {
  %3 = alloca ptr, align 8
  %4 = alloca ptr, align 8
  %5 = alloca i8, align 1
  store ptr %0, ptr %3, align 8
  store ptr %1, ptr %4, align 8
  %6 = load ptr, ptr %3, align 8
  %7 = load ptr, ptr %6, align 8
  %8 = getelementptr inbounds ptr, ptr %7, i64 5
  %9 = load ptr, ptr %8, align 8
  call void %9(ptr noundef nonnull align 8 dereferenceable(16) %6)
  store i8 0, ptr %5, align 1
  %10 = load ptr, ptr %4, align 8
  %11 = load ptr, ptr %10, align 8
  %12 = call noundef zeroext i1 @_ZN6google8protobuf8internal13MergeFromImplILb0EEEbPNS0_2io19ZeroCopyInputStreamEPNS0_11MessageLiteENS6_10ParseFlagsE(ptr noundef %11, ptr noundef %6, i32 noundef 1)
  ret i1 %12
}

; Function Attrs: mustprogress uwtable
define noundef zeroext i1 @_ZN6google8protobuf11MessageLite23ParseFromZeroCopyStreamEPNS0_2io19ZeroCopyInputStreamE(ptr noundef nonnull align 8 dereferenceable(16) %0, ptr noundef %1) #4 align 2 {
  %3 = alloca ptr, align 8
  %4 = alloca ptr, align 8
  store ptr %0, ptr %3, align 8
  store ptr %1, ptr %4, align 8
  %5 = load ptr, ptr %3, align 8
  %6 = call noundef zeroext i1 @_ZN6google8protobuf11MessageLite9ParseFromILNS1_10ParseFlagsE1EPNS0_2io19ZeroCopyInputStreamEEEbRKT0_(ptr noundef nonnull align 8 dereferenceable(16) %5, ptr noundef nonnull align 8 dereferenceable(8) %4)
  ret i1 %6
}