; Function Attrs: mustprogress uwtable
define noundef zeroext i1 @_ZN6google8protobuf11MessageLite23ParseFromZeroCopyStreamEPNS0_2io19ZeroCopyInputStreamE(ptr noundef nonnull align 8 dereferenceable(16) %0, ptr noundef %1) local_unnamed_addr #3 align 2 {
  %3 = alloca %"class.google::protobuf::internal::ParseContext", align 8
  %4 = load ptr, ptr %0, align 8
  %5 = getelementptr inbounds i8, ptr %4, i64 40
  %6 = load ptr, ptr %5, align 8
  tail call void %6(ptr noundef nonnull align 8 dereferenceable(16) %0)
  call void @llvm.lifetime.start.p0(i64 112, ptr nonnull %3)
  %7 = load i32, ptr @_ZN6google8protobuf2io16CodedInputStream24default_recursion_limit_E, align 4
  %8 = getelementptr inbounds i8, ptr %3, i64 32
  %9 = getelementptr inbounds i8, ptr %3, i64 80
  %10 = getelementptr inbounds i8, ptr %3, i64 84
  call void @llvm.memset.p0.i64(ptr noundef nonnull align 8 dereferenceable(52) %8, i8 0, i64 52, i1 false)
  store i32 2147483647, ptr %10, align 4
  %11 = getelementptr inbounds i8, ptr %3, i64 88
  store i32 %7, ptr %11, align 8
  %12 = getelementptr inbounds i8, ptr %3, i64 92
  store i32 -2147483648, ptr %12, align 4
  %13 = getelementptr inbounds i8, ptr %3, i64 96
  call void @llvm.memset.p0.i64(ptr noundef nonnull align 8 dereferenceable(16) %13, i8 0, i64 16, i1 false)
  %14 = call noundef ptr @_ZN6google8protobuf8internal18EpsCopyInputStream8InitFromEPNS0_2io19ZeroCopyInputStreamE(ptr noundef nonnull align 8 dereferenceable(88) %3, ptr noundef %1)
  %15 = load ptr, ptr %0, align 8
  %16 = getelementptr inbounds i8, ptr %15, i64 88
  %17 = load ptr, ptr %16, align 8
  %18 = call noundef ptr %17(ptr noundef nonnull align 8 dereferenceable(16) %0, ptr noundef %14, ptr noundef nonnull %3)
  %.not.i.i = icmp ne ptr %18, null
  %19 = load i32, ptr %9, align 8
  %20 = icmp eq i32 %19, 1
  %or.cond.i.i = select i1 %.not.i.i, i1 %20, i1 false
  br i1 %or.cond.i.i, label %21, label %_ZN6google8protobuf11MessageLite9ParseFromILNS1_10ParseFlagsE1EPNS0_2io19ZeroCopyInputStreamEEEbRKT0_.exit

21:                                               ; preds = %2
  %22 = load ptr, ptr %0, align 8
  %23 = getelementptr inbounds i8, ptr %22, i64 48
  %24 = load ptr, ptr %23, align 8
  %25 = call noundef zeroext i1 %24(ptr noundef nonnull align 8 dereferenceable(16) %0)
  br i1 %25, label %_ZN6google8protobuf11MessageLite9ParseFromILNS1_10ParseFlagsE1EPNS0_2io19ZeroCopyInputStreamEEEbRKT0_.exit, label %26

26:                                               ; preds = %21
  call void @_ZNK6google8protobuf11MessageLite29LogInitializationErrorMessageEv(ptr noundef nonnull align 8 dereferenceable(16) %0)
  br label %_ZN6google8protobuf11MessageLite9ParseFromILNS1_10ParseFlagsE1EPNS0_2io19ZeroCopyInputStreamEEEbRKT0_.exit

_ZN6google8protobuf11MessageLite9ParseFromILNS1_10ParseFlagsE1EPNS0_2io19ZeroCopyInputStreamEEEbRKT0_.exit: ; preds = %2, %21, %26
  %.0.i.i = phi i1 [ false, %2 ], [ true, %21 ], [ false, %26 ]
  call void @llvm.lifetime.end.p0(i64 112, ptr nonnull %3)
  ret i1 %.0.i.i
}